target datalayout = "e-m:e-p270:32:32-p271:32:32-p272:64:64-i64:64-i128:128-f80:128-n8:16:32:64-S128"
target triple = "x86_64-pc-linux-gnu"

%"class.gmx::PositionCalculationCollection::Impl" = type { ptr, ptr, ptr, i8, %"class.std::vector.5", %"class.std::vector.5" }
%"class.std::vector.5" = type { %"struct.std::_Vector_base.6" }
%"struct.std::_Vector_base.6" = type { %"struct.std::_Vector_base<int, std::allocator<int>>::_Vector_impl" }
%"struct.std::_Vector_base<int, std::allocator<int>>::_Vector_impl" = type { %"struct.std::_Vector_base<int, std::allocator<int>>::_Vector_impl_data" }
%"struct.std::_Vector_base<int, std::allocator<int>>::_Vector_impl_data" = type { ptr, ptr, ptr }
%struct.gmx_ana_poscalc_t = type { i32, i32, i32, %struct.t_blocka, ptr, %struct.gmx_ana_index_t, ptr, i8, ptr, ptr, ptr, i32, ptr }
%struct.t_blocka = type { i32, ptr, i32, ptr, i32, i32 }
%struct.gmx_ana_index_t = type { i32, ptr, i32 }

; Function Attrs: mustprogress uwtable
define internal void @_ZL20set_poscalc_maxindexP17gmx_ana_poscalc_tP15gmx_ana_index_tb(ptr noundef %0, ptr noundef %1, i1 noundef zeroext %2) #0 {
  %4 = alloca ptr, align 8
  %5 = alloca ptr, align 8
  %6 = alloca i8, align 1
  %7 = alloca ptr, align 8
  store ptr %0, ptr %4, align 8, !tbaa !171
  store ptr %1, ptr %5, align 8, !tbaa !223
  %8 = zext i1 %2 to i8
  store i8 %8, ptr %6, align 1, !tbaa !118
  call void @llvm.lifetime.start.p0(i64 8, ptr %7) #17
  %9 = load ptr, ptr %4, align 8, !tbaa !171
  %10 = getelementptr inbounds nuw %struct.gmx_ana_poscalc_t, ptr %9, i32 0, i32 12
  %11 = load ptr, ptr %10, align 8, !tbaa !172
  %12 = getelementptr inbounds nuw %"class.gmx::PositionCalculationCollection::Impl", ptr %11, i32 0, i32 0
  %13 = load ptr, ptr %12, align 8, !tbaa !136
  store ptr %13, ptr %7, align 8, !tbaa !211
  %14 = load ptr, ptr %4, align 8, !tbaa !171
  %15 = getelementptr inbounds nuw %struct.gmx_ana_poscalc_t, ptr %14, i32 0, i32 3
  %16 = load ptr, ptr %7, align 8, !tbaa !211
  %17 = load ptr, ptr %5, align 8, !tbaa !223
  %18 = load ptr, ptr %4, align 8, !tbaa !171
  %19 = getelementptr inbounds nuw %struct.gmx_ana_poscalc_t, ptr %18, i32 0, i32 2
  %20 = load i32, ptr %19, align 8, !tbaa !184
  %21 = load ptr, ptr %4, align 8, !tbaa !171
  %22 = getelementptr inbounds nuw %struct.gmx_ana_poscalc_t, ptr %21, i32 0, i32 1
  %23 = load i32, ptr %22, align 4, !tbaa !177
  %24 = and i32 %23, 4
  %25 = icmp ne i32 %24, 0
  call void @_Z24gmx_ana_index_make_blockP8t_blockaPK10gmx_mtop_tP15gmx_ana_index_t9e_index_tb(ptr noundef %15, ptr noundef %16, ptr noundef %17, i32 noundef %20, i1 noundef zeroext %25)
  %26 = load ptr, ptr %4, align 8, !tbaa !171
  %27 = getelementptr inbounds nuw %struct.gmx_ana_poscalc_t, ptr %26, i32 0, i32 3
  %28 = getelementptr inbounds nuw %struct.t_blocka, ptr %27, i32 0, i32 0
  %29 = load i32, ptr %28, align 8, !tbaa !212
  %30 = load ptr, ptr %4, align 8, !tbaa !171
  %31 = getelementptr inbounds nuw %struct.gmx_ana_poscalc_t, ptr %30, i32 0, i32 3
  %32 = getelementptr inbounds nuw %struct.t_blocka, ptr %31, i32 0, i32 2
  %33 = load i32, ptr %32, align 8, !tbaa !213
  %34 = icmp eq i32 %29, %33
  br i1 %34, label %35, label %42

35:                                               ; preds = %3
  %36 = load ptr, ptr %4, align 8, !tbaa !171
  %37 = getelementptr inbounds nuw %struct.gmx_ana_poscalc_t, ptr %36, i32 0, i32 0
  store i32 0, ptr %37, align 8, !tbaa !183
  %38 = load ptr, ptr %4, align 8, !tbaa !171
  %39 = getelementptr inbounds nuw %struct.gmx_ana_poscalc_t, ptr %38, i32 0, i32 1
  %40 = load i32, ptr %39, align 4, !tbaa !177
  %41 = and i32 %40, -8
  store i32 %41, ptr %39, align 4, !tbaa !177
  br label %42

42:                                               ; preds = %35, %3
  %43 = load ptr, ptr %4, align 8, !tbaa !171
  %44 = getelementptr inbounds nuw %struct.gmx_ana_poscalc_t, ptr %43, i32 0, i32 1
  %45 = load i32, ptr %44, align 4, !tbaa !177
  %46 = and i32 %45, 4
  %47 = icmp ne i32 %46, 0
  br i1 %47, label %86, label %48

48:                                               ; preds = %42
  %49 = load ptr, ptr %4, align 8, !tbaa !171
  %50 = getelementptr inbounds nuw %struct.gmx_ana_poscalc_t, ptr %49, i32 0, i32 1
  %51 = load i32, ptr %50, align 4, !tbaa !177
  %52 = and i32 %51, 16
  %53 = icmp ne i32 %52, 0
  br i1 %53, label %54, label %60

54:                                               ; preds = %48
  %55 = load ptr, ptr %4, align 8, !tbaa !171
  %56 = getelementptr inbounds nuw %struct.gmx_ana_poscalc_t, ptr %55, i32 0, i32 1
  %57 = load i32, ptr %56, align 4, !tbaa !177
  %58 = and i32 %57, 2
  %59 = icmp ne i32 %58, 0
  br i1 %59, label %60, label %86

60:                                               ; preds = %54, %48
  %61 = load ptr, ptr %4, align 8, !tbaa !171
  %62 = getelementptr inbounds nuw %struct.gmx_ana_poscalc_t, ptr %61, i32 0, i32 0
  %63 = load i32, ptr %62, align 8, !tbaa !183
  %64 = icmp eq i32 %63, 1
  br i1 %64, label %70, label %65

65:                                               ; preds = %60
  %66 = load ptr, ptr %4, align 8, !tbaa !171
  %67 = getelementptr inbounds nuw %struct.gmx_ana_poscalc_t, ptr %66, i32 0, i32 0
  %68 = load i32, ptr %67, align 8, !tbaa !183
  %69 = icmp eq i32 %68, 2
  br i1 %69, label %70, label %86

70:                                               ; preds = %65, %60
  %71 = load ptr, ptr %5, align 8, !tbaa !223
  %72 = load ptr, ptr %4, align 8, !tbaa !171
  %73 = getelementptr inbounds nuw %struct.gmx_ana_poscalc_t, ptr %72, i32 0, i32 2
  %74 = load i32, ptr %73, align 8, !tbaa !184
  %75 = load ptr, ptr %7, align 8, !tbaa !211
  %76 = call noundef zeroext i1 @_Z32gmx_ana_index_has_complete_elemsP15gmx_ana_index_t9e_index_tPK10gmx_mtop_t(ptr noundef %71, i32 noundef %74, ptr noundef %75)
  br i1 %76, label %77, label %86

77:                                               ; preds = %70
  %78 = load ptr, ptr %4, align 8, !tbaa !171
  %79 = getelementptr inbounds nuw %struct.gmx_ana_poscalc_t, ptr %78, i32 0, i32 1
  %80 = load i32, ptr %79, align 4, !tbaa !177
  %81 = and i32 %80, -3
  store i32 %81, ptr %79, align 4, !tbaa !177
  %82 = load ptr, ptr %4, align 8, !tbaa !171
  %83 = getelementptr inbounds nuw %struct.gmx_ana_poscalc_t, ptr %82, i32 0, i32 1
  %84 = load i32, ptr %83, align 4, !tbaa !177
  %85 = or i32 %84, 4
  store i32 %85, ptr %83, align 4, !tbaa !177
  br label %86

86:                                               ; preds = %77, %70, %65, %54, %42
  %87 = load ptr, ptr %4, align 8, !tbaa !171
  %88 = getelementptr inbounds nuw %struct.gmx_ana_poscalc_t, ptr %87, i32 0, i32 1
  %89 = load i32, ptr %88, align 4, !tbaa !177
  %90 = and i32 %89, 4
  %91 = icmp ne i32 %90, 0
  br i1 %91, label %92, label %108

92:                                               ; preds = %86
  %93 = load i8, ptr %6, align 1, !tbaa !118, !range !132, !noundef !133
  %94 = trunc i8 %93 to i1
  br i1 %94, label %108, label %95

95:                                               ; preds = %92
  %96 = load ptr, ptr %4, align 8, !tbaa !171
  %97 = getelementptr inbounds nuw %struct.gmx_ana_poscalc_t, ptr %96, i32 0, i32 3
  %98 = getelementptr inbounds nuw %struct.t_blocka, ptr %97, i32 0, i32 2
  %99 = load i32, ptr %98, align 8, !tbaa !213
  %100 = load ptr, ptr %5, align 8, !tbaa !223
  %101 = getelementptr inbounds nuw %struct.gmx_ana_index_t, ptr %100, i32 0, i32 0
  %102 = load i32, ptr %101, align 8, !tbaa !259
  %103 = icmp sgt i32 %99, %102
  br i1 %103, label %104, label %108

104:                                              ; preds = %95
  %105 = load ptr, ptr %4, align 8, !tbaa !171
  %106 = getelementptr inbounds nuw %struct.gmx_ana_poscalc_t, ptr %105, i32 0, i32 5
  %107 = load ptr, ptr %5, align 8, !tbaa !223
  call void @_Z18gmx_ana_index_copyP15gmx_ana_index_tS0_b(ptr noundef %106, ptr noundef %107, i1 noundef zeroext true)
  br label %119

108:                                              ; preds = %95, %92, %86
  %109 = load ptr, ptr %4, align 8, !tbaa !171
  %110 = getelementptr inbounds nuw %struct.gmx_ana_poscalc_t, ptr %109, i32 0, i32 5
  %111 = load ptr, ptr %4, align 8, !tbaa !171
  %112 = getelementptr inbounds nuw %struct.gmx_ana_poscalc_t, ptr %111, i32 0, i32 3
  %113 = getelementptr inbounds nuw %struct.t_blocka, ptr %112, i32 0, i32 2
  %114 = load i32, ptr %113, align 8, !tbaa !213
  %115 = load ptr, ptr %4, align 8, !tbaa !171
  %116 = getelementptr inbounds nuw %struct.gmx_ana_poscalc_t, ptr %115, i32 0, i32 3
  %117 = getelementptr inbounds nuw %struct.t_blocka, ptr %116, i32 0, i32 3
  %118 = load ptr, ptr %117, align 8, !tbaa !176
  call void @_Z17gmx_ana_index_setP15gmx_ana_index_tiPii(ptr noundef %110, i32 noundef %114, ptr noundef %118, i32 noundef 0)
  br label %119

119:                                              ; preds = %108, %104
  call void @llvm.lifetime.end.p0(i64 8, ptr %7) #17
  ret void
}