; Function Attrs: mustprogress uwtable
define internal fastcc void @_ZL20set_poscalc_maxindexP17gmx_ana_poscalc_tP15gmx_ana_index_tb(ptr noundef %0, ptr noundef %1, i1 noundef zeroext %2) unnamed_addr #0 {
  %4 = getelementptr inbounds nuw i8, ptr %0, i64 136
  %5 = load ptr, ptr %4, align 8, !tbaa !70
  %6 = load ptr, ptr %5, align 8, !tbaa !85
  %7 = getelementptr inbounds nuw i8, ptr %0, i64 16
  %8 = getelementptr inbounds nuw i8, ptr %0, i64 8
  %9 = load i32, ptr %8, align 8, !tbaa !83
  %10 = getelementptr inbounds nuw i8, ptr %0, i64 4
  %11 = load i32, ptr %10, align 4, !tbaa !78
  %12 = and i32 %11, 4
  %13 = icmp ne i32 %12, 0
  tail call void @_Z24gmx_ana_index_make_blockP8t_blockaPK10gmx_mtop_tP15gmx_ana_index_t9e_index_tb(ptr noundef nonnull %7, ptr noundef %6, ptr noundef %1, i32 noundef %9, i1 noundef zeroext %13)
  %14 = load i32, ptr %7, align 8, !tbaa !87
  %15 = getelementptr inbounds nuw i8, ptr %0, i64 32
  %16 = load i32, ptr %15, align 8, !tbaa !88
  %17 = icmp eq i32 %14, %16
  %.pre = load i32, ptr %10, align 4, !tbaa !78
  br i1 %17, label %18, label %20

18:                                               ; preds = %3
  store i32 0, ptr %0, align 8, !tbaa !82
  %19 = and i32 %.pre, -8
  store i32 %19, ptr %10, align 4, !tbaa !78
  br label %20

20:                                               ; preds = %18, %3
  %21 = phi i32 [ %19, %18 ], [ %.pre, %3 ]
  %22 = and i32 %21, 4
  %.not = icmp ne i32 %22, 0
  %23 = and i32 %21, 18
  %or.cond = icmp eq i32 %23, 16
  %or.cond31 = or i1 %.not, %or.cond
  br i1 %or.cond31, label %32, label %24

24:                                               ; preds = %20
  %25 = load i32, ptr %0, align 8, !tbaa !82
  %.off = add i32 %25, -1
  %switch = icmp ult i32 %.off, 2
  br i1 %switch, label %26, label %32

26:                                               ; preds = %24
  %27 = load i32, ptr %8, align 8, !tbaa !83
  %28 = tail call noundef zeroext i1 @_Z32gmx_ana_index_has_complete_elemsP15gmx_ana_index_t9e_index_tPK10gmx_mtop_t(ptr noundef %1, i32 noundef %27, ptr noundef %6)
  %.pre32 = load i32, ptr %10, align 4, !tbaa !78
  br i1 %28, label %29, label %32

29:                                               ; preds = %26
  %30 = and i32 %.pre32, -7
  %31 = or disjoint i32 %30, 4
  store i32 %31, ptr %10, align 4, !tbaa !78
  br label %32

32:                                               ; preds = %24, %29, %26, %20
  %33 = phi i32 [ %21, %24 ], [ %31, %29 ], [ %.pre32, %26 ], [ %21, %20 ]
  %34 = and i32 %33, 4
  %.not30 = icmp eq i32 %34, 0
  %brmerge = or i1 %2, %.not30
  %.pre33 = load i32, ptr %15, align 8, !tbaa !88
  br i1 %brmerge, label %40, label %35

35:                                               ; preds = %32
  %36 = load i32, ptr %1, align 8, !tbaa !122
  %37 = icmp sgt i32 %.pre33, %36
  br i1 %37, label %38, label %40

38:                                               ; preds = %35
  %39 = getelementptr inbounds nuw i8, ptr %0, i64 64
  tail call void @_Z18gmx_ana_index_copyP15gmx_ana_index_tS0_b(ptr noundef nonnull %39, ptr noundef nonnull %1, i1 noundef zeroext true)
  br label %44

40:                                               ; preds = %32, %35
  %41 = getelementptr inbounds nuw i8, ptr %0, i64 64
  %42 = getelementptr inbounds nuw i8, ptr %0, i64 40
  %43 = load ptr, ptr %42, align 8, !tbaa !77
  tail call void @_Z17gmx_ana_index_setP15gmx_ana_index_tiPii(ptr noundef nonnull %41, i32 noundef %.pre33, ptr noundef %43, i32 noundef 0)
  br label %44

44:                                               ; preds = %40, %38
  ret void
}